   1              		.cpu arm7tdmi
   2              		.fpu softvfp
   3              		.eabi_attribute 20, 1
   4              		.eabi_attribute 21, 1
   5              		.eabi_attribute 23, 3
   6              		.eabi_attribute 24, 1
   7              		.eabi_attribute 25, 1
   8              		.eabi_attribute 26, 1
   9              		.eabi_attribute 30, 6
  10              		.eabi_attribute 18, 4
  11              		.file	"leds.c"
  21              	.Ltext0:
  22              		.file 1 "../leds.c"
 1718              		.align	2
 1719              	status:
 1720 0000 00000000 		.space	4
 1721              		.text
 1722              		.align	2
 1723              		.global	leds_init
 1725              	leds_init:
 1726              	.LFB0:
   1:../leds.c     **** /*-------------------------------------------------------------------
   2:../leds.c     **** **
   3:../leds.c     **** **  Fichero:
   4:../leds.c     **** 
   5:../leds.c     **** **    leds.c  10/6/2014
   6:../leds.c     **** **
   7:../leds.c     **** **    Estructura de Computadores
   8:../leds.c     **** **    Dpto. de Arquitectura de Computadores y Automática
   9:../leds.c     **** **    Facultad de Informática. Universidad Complutense de Madrid
  10:../leds.c     **** **
  11:../leds.c     **** **  Propósito:
  12:../leds.c     **** **    Contiene las implementaciones de las funciones
  13:../leds.c     **** **    para el acceso a los leds de la placa de prototipado
  14:../leds.c     **** **
  15:../leds.c     **** **  Notas de diseño:
  16:../leds.c     **** **    Equivale al fichero homónimo usado en Fundamentos de Computadores
  17:../leds.c     **** **
  18:../leds.c     **** **-----------------------------------------------------------------*/
  19:../leds.c     **** 
  20:../leds.c     **** #include "44b.h"
  21:../leds.c     **** #include "leds.h"
  22:../leds.c     **** #include "gpio.h"
  23:../leds.c     **** 
  24:../leds.c     **** // Máscaras de bits
  25:../leds.c     **** #define LED1 0x01
  26:../leds.c     **** #define LED2 0x02
  27:../leds.c     **** #define BIT_LED1 9
  28:../leds.c     **** #define BIT_LED2 10
  29:../leds.c     **** 
  30:../leds.c     **** // status representa el estado de los leds
  31:../leds.c     **** // solo tienen sentido los dos bites menos
  32:../leds.c     **** // significativos, cada uno para un led
  33:../leds.c     **** // 1 encendido y 0 apagado
  34:../leds.c     **** static unsigned int status = 0;
  35:../leds.c     **** 
  36:../leds.c     **** void leds_init( void )
  37:../leds.c     **** {
 1727              		.loc 1 37 0
 1728              		.cfi_startproc
 1729              		@ Function supports interworking.
 1730              		@ args = 0, pretend = 0, frame = 0
 1731              		@ frame_needed = 1, uses_anonymous_args = 0
 1732 0000 0DC0A0E1 		mov	ip, sp
 1733              	.LCFI0:
 1734              		.cfi_def_cfa_register 12
 1735 0004 00D82DE9 		stmfd	sp!, {fp, ip, lr, pc}
 1736 0008 04B04CE2 		sub	fp, ip, #4
 1737              		.cfi_offset 14, -8
 1738              		.cfi_offset 13, -12
 1739              		.cfi_offset 11, -16
 1740              	.LCFI1:
 1741              		.cfi_def_cfa 11, 4
  38:../leds.c     **** 	//COMPLETAR usando el interfaz del puerto B definido en gpio.h
  39:../leds.c     **** 	//hay que configurar los pines 9 y 10 como pines de salida
  40:../leds.c     **** 	rPCONB = rPCONB & ~(0x01 << 9);
 1742              		.loc 1 40 0
 1743 000c 3C309FE5 		ldr	r3, .L2
 1744 0010 38209FE5 		ldr	r2, .L2
 1745 0014 002092E5 		ldr	r2, [r2, #0]
 1746 0018 022CC2E3 		bic	r2, r2, #512
 1747 001c 002083E5 		str	r2, [r3, #0]
  41:../leds.c     **** 	rPCONB = rPCONB & ~(0x01 << 10);
 1748              		.loc 1 41 0
 1749 0020 28309FE5 		ldr	r3, .L2
 1750 0024 24209FE5 		ldr	r2, .L2
 1751 0028 002092E5 		ldr	r2, [r2, #0]
 1752 002c 012BC2E3 		bic	r2, r2, #1024
 1753 0030 002083E5 		str	r2, [r3, #0]
  42:../leds.c     **** 
  43:../leds.c     **** 	leds_display( status );
 1754              		.loc 1 43 0
 1755 0034 18309FE5 		ldr	r3, .L2+4
 1756 0038 003093E5 		ldr	r3, [r3, #0]
 1757 003c 0300A0E1 		mov	r0, r3
 1758 0040 FEFFFFEB 		bl	leds_display
  44:../leds.c     **** }
 1759              		.loc 1 44 0
 1760 0044 0CD04BE2 		sub	sp, fp, #12
 1761 0048 00689DE8 		ldmfd	sp, {fp, sp, lr}
 1762 004c 1EFF2FE1 		bx	lr
 1763              	.L3:
 1764              		.align	2
 1765              	.L2:
 1766 0050 0800D201 		.word	30539784
 1767 0054 00000000 		.word	status
 1768              		.cfi_endproc
 1769              	.LFE0:
 1771              		.align	2
 1772              		.global	led1_on
 1774              	led1_on:
 1775              	.LFB1:
  45:../leds.c     **** 
  46:../leds.c     **** void led1_on( void )
  47:../leds.c     **** {
 1776              		.loc 1 47 0
 1777              		.cfi_startproc
 1778              		@ Function supports interworking.
 1779              		@ args = 0, pretend = 0, frame = 0
 1780              		@ frame_needed = 1, uses_anonymous_args = 0
 1781 0058 0DC0A0E1 		mov	ip, sp
 1782              	.LCFI2:
 1783              		.cfi_def_cfa_register 12
 1784 005c 00D82DE9 		stmfd	sp!, {fp, ip, lr, pc}
 1785 0060 04B04CE2 		sub	fp, ip, #4
 1786              		.cfi_offset 14, -8
 1787              		.cfi_offset 13, -12
 1788              		.cfi_offset 11, -16
 1789              	.LCFI3:
 1790              		.cfi_def_cfa 11, 4
  48:../leds.c     **** 	status |=  LED1;
 1791              		.loc 1 48 0
 1792 0064 28309FE5 		ldr	r3, .L5
 1793 0068 003093E5 		ldr	r3, [r3, #0]
 1794 006c 012083E3 		orr	r2, r3, #1
 1795 0070 1C309FE5 		ldr	r3, .L5
 1796 0074 002083E5 		str	r2, [r3, #0]
  49:../leds.c     **** 	leds_display( status );
 1797              		.loc 1 49 0
 1798 0078 14309FE5 		ldr	r3, .L5
 1799 007c 003093E5 		ldr	r3, [r3, #0]
 1800 0080 0300A0E1 		mov	r0, r3
 1801 0084 FEFFFFEB 		bl	leds_display
  50:../leds.c     **** }
 1802              		.loc 1 50 0
 1803 0088 0CD04BE2 		sub	sp, fp, #12
 1804 008c 00689DE8 		ldmfd	sp, {fp, sp, lr}
 1805 0090 1EFF2FE1 		bx	lr
 1806              	.L6:
 1807              		.align	2
 1808              	.L5:
 1809 0094 00000000 		.word	status
 1810              		.cfi_endproc
 1811              	.LFE1:
 1813              		.align	2
 1814              		.global	led1_off
 1816              	led1_off:
 1817              	.LFB2:
  51:../leds.c     **** 
  52:../leds.c     **** void led1_off( void )
  53:../leds.c     **** {
 1818              		.loc 1 53 0
 1819              		.cfi_startproc
 1820              		@ Function supports interworking.
 1821              		@ args = 0, pretend = 0, frame = 0
 1822              		@ frame_needed = 1, uses_anonymous_args = 0
 1823 0098 0DC0A0E1 		mov	ip, sp
 1824              	.LCFI4:
 1825              		.cfi_def_cfa_register 12
 1826 009c 00D82DE9 		stmfd	sp!, {fp, ip, lr, pc}
 1827 00a0 04B04CE2 		sub	fp, ip, #4
 1828              		.cfi_offset 14, -8
 1829              		.cfi_offset 13, -12
 1830              		.cfi_offset 11, -16
 1831              	.LCFI5:
 1832              		.cfi_def_cfa 11, 4
  54:../leds.c     **** 	status &=  ~LED1;
 1833              		.loc 1 54 0
 1834 00a4 28309FE5 		ldr	r3, .L8
 1835 00a8 003093E5 		ldr	r3, [r3, #0]
 1836 00ac 0120C3E3 		bic	r2, r3, #1
 1837 00b0 1C309FE5 		ldr	r3, .L8
 1838 00b4 002083E5 		str	r2, [r3, #0]
  55:../leds.c     **** 	leds_display( status );
 1839              		.loc 1 55 0
 1840 00b8 14309FE5 		ldr	r3, .L8
 1841 00bc 003093E5 		ldr	r3, [r3, #0]
 1842 00c0 0300A0E1 		mov	r0, r3
 1843 00c4 FEFFFFEB 		bl	leds_display
  56:../leds.c     **** }
 1844              		.loc 1 56 0
 1845 00c8 0CD04BE2 		sub	sp, fp, #12
 1846 00cc 00689DE8 		ldmfd	sp, {fp, sp, lr}
 1847 00d0 1EFF2FE1 		bx	lr
 1848              	.L9:
 1849              		.align	2
 1850              	.L8:
 1851 00d4 00000000 		.word	status
 1852              		.cfi_endproc
 1853              	.LFE2:
 1855              		.align	2
 1856              		.global	led2_on
 1858              	led2_on:
 1859              	.LFB3:
  57:../leds.c     **** 
  58:../leds.c     **** void led2_on( void )
  59:../leds.c     **** {
 1860              		.loc 1 59 0
 1861              		.cfi_startproc
 1862              		@ Function supports interworking.
 1863              		@ args = 0, pretend = 0, frame = 0
 1864              		@ frame_needed = 1, uses_anonymous_args = 0
 1865 00d8 0DC0A0E1 		mov	ip, sp
 1866              	.LCFI6:
 1867              		.cfi_def_cfa_register 12
 1868 00dc 00D82DE9 		stmfd	sp!, {fp, ip, lr, pc}
 1869 00e0 04B04CE2 		sub	fp, ip, #4
 1870              		.cfi_offset 14, -8
 1871              		.cfi_offset 13, -12
 1872              		.cfi_offset 11, -16
 1873              	.LCFI7:
 1874              		.cfi_def_cfa 11, 4
  60:../leds.c     **** 	status |=  LED2;
 1875              		.loc 1 60 0
 1876 00e4 28309FE5 		ldr	r3, .L11
 1877 00e8 003093E5 		ldr	r3, [r3, #0]
 1878 00ec 022083E3 		orr	r2, r3, #2
 1879 00f0 1C309FE5 		ldr	r3, .L11
 1880 00f4 002083E5 		str	r2, [r3, #0]
  61:../leds.c     **** 	leds_display( status );
 1881              		.loc 1 61 0
 1882 00f8 14309FE5 		ldr	r3, .L11
 1883 00fc 003093E5 		ldr	r3, [r3, #0]
 1884 0100 0300A0E1 		mov	r0, r3
 1885 0104 FEFFFFEB 		bl	leds_display
  62:../leds.c     **** }
 1886              		.loc 1 62 0
 1887 0108 0CD04BE2 		sub	sp, fp, #12
 1888 010c 00689DE8 		ldmfd	sp, {fp, sp, lr}
 1889 0110 1EFF2FE1 		bx	lr
 1890              	.L12:
 1891              		.align	2
 1892              	.L11:
 1893 0114 00000000 		.word	status
 1894              		.cfi_endproc
 1895              	.LFE3:
 1897              		.align	2
 1898              		.global	led2_off
 1900              	led2_off:
 1901              	.LFB4:
  63:../leds.c     **** 
  64:../leds.c     **** void led2_off( void )
  65:../leds.c     **** {
 1902              		.loc 1 65 0
 1903              		.cfi_startproc
 1904              		@ Function supports interworking.
 1905              		@ args = 0, pretend = 0, frame = 0
 1906              		@ frame_needed = 1, uses_anonymous_args = 0
 1907 0118 0DC0A0E1 		mov	ip, sp
 1908              	.LCFI8:
 1909              		.cfi_def_cfa_register 12
 1910 011c 00D82DE9 		stmfd	sp!, {fp, ip, lr, pc}
 1911 0120 04B04CE2 		sub	fp, ip, #4
 1912              		.cfi_offset 14, -8
 1913              		.cfi_offset 13, -12
 1914              		.cfi_offset 11, -16
 1915              	.LCFI9:
 1916              		.cfi_def_cfa 11, 4
  66:../leds.c     **** 	status &=  ~LED2;
 1917              		.loc 1 66 0
 1918 0124 28309FE5 		ldr	r3, .L14
 1919 0128 003093E5 		ldr	r3, [r3, #0]
 1920 012c 0220C3E3 		bic	r2, r3, #2
 1921 0130 1C309FE5 		ldr	r3, .L14
 1922 0134 002083E5 		str	r2, [r3, #0]
  67:../leds.c     **** 	leds_display( status );
 1923              		.loc 1 67 0
 1924 0138 14309FE5 		ldr	r3, .L14
 1925 013c 003093E5 		ldr	r3, [r3, #0]
 1926 0140 0300A0E1 		mov	r0, r3
 1927 0144 FEFFFFEB 		bl	leds_display
  68:../leds.c     **** }
 1928              		.loc 1 68 0
 1929 0148 0CD04BE2 		sub	sp, fp, #12
 1930 014c 00689DE8 		ldmfd	sp, {fp, sp, lr}
 1931 0150 1EFF2FE1 		bx	lr
 1932              	.L15:
 1933              		.align	2
 1934              	.L14:
 1935 0154 00000000 		.word	status
 1936              		.cfi_endproc
 1937              	.LFE4:
 1939              		.align	2
 1940              		.global	led1_switch
 1942              	led1_switch:
 1943              	.LFB5:
  69:../leds.c     **** 
  70:../leds.c     **** void led1_switch( void )
  71:../leds.c     **** {
 1944              		.loc 1 71 0
 1945              		.cfi_startproc
 1946              		@ Function supports interworking.
 1947              		@ args = 0, pretend = 0, frame = 0
 1948              		@ frame_needed = 1, uses_anonymous_args = 0
 1949 0158 0DC0A0E1 		mov	ip, sp
 1950              	.LCFI10:
 1951              		.cfi_def_cfa_register 12
 1952 015c 00D82DE9 		stmfd	sp!, {fp, ip, lr, pc}
 1953 0160 04B04CE2 		sub	fp, ip, #4
 1954              		.cfi_offset 14, -8
 1955              		.cfi_offset 13, -12
 1956              		.cfi_offset 11, -16
 1957              	.LCFI11:
 1958              		.cfi_def_cfa 11, 4
  72:../leds.c     **** 	status ^= LED1;
 1959              		.loc 1 72 0
 1960 0164 28309FE5 		ldr	r3, .L17
 1961 0168 003093E5 		ldr	r3, [r3, #0]
 1962 016c 012023E2 		eor	r2, r3, #1
 1963 0170 1C309FE5 		ldr	r3, .L17
 1964 0174 002083E5 		str	r2, [r3, #0]
  73:../leds.c     **** 	leds_display( status );
 1965              		.loc 1 73 0
 1966 0178 14309FE5 		ldr	r3, .L17
 1967 017c 003093E5 		ldr	r3, [r3, #0]
 1968 0180 0300A0E1 		mov	r0, r3
 1969 0184 FEFFFFEB 		bl	leds_display
  74:../leds.c     **** }
 1970              		.loc 1 74 0
 1971 0188 0CD04BE2 		sub	sp, fp, #12
 1972 018c 00689DE8 		ldmfd	sp, {fp, sp, lr}
 1973 0190 1EFF2FE1 		bx	lr
 1974              	.L18:
 1975              		.align	2
 1976              	.L17:
 1977 0194 00000000 		.word	status
 1978              		.cfi_endproc
 1979              	.LFE5:
 1981              		.align	2
 1982              		.global	led2_switch
 1984              	led2_switch:
 1985              	.LFB6:
  75:../leds.c     **** 
  76:../leds.c     **** void led2_switch( void )
  77:../leds.c     **** {
 1986              		.loc 1 77 0
 1987              		.cfi_startproc
 1988              		@ Function supports interworking.
 1989              		@ args = 0, pretend = 0, frame = 0
 1990              		@ frame_needed = 1, uses_anonymous_args = 0
 1991 0198 0DC0A0E1 		mov	ip, sp
 1992              	.LCFI12:
 1993              		.cfi_def_cfa_register 12
 1994 019c 00D82DE9 		stmfd	sp!, {fp, ip, lr, pc}
 1995 01a0 04B04CE2 		sub	fp, ip, #4
 1996              		.cfi_offset 14, -8
 1997              		.cfi_offset 13, -12
 1998              		.cfi_offset 11, -16
 1999              	.LCFI13:
 2000              		.cfi_def_cfa 11, 4
  78:../leds.c     **** 	status ^= LED2;
 2001              		.loc 1 78 0
 2002 01a4 28309FE5 		ldr	r3, .L20
 2003 01a8 003093E5 		ldr	r3, [r3, #0]
 2004 01ac 022023E2 		eor	r2, r3, #2
 2005 01b0 1C309FE5 		ldr	r3, .L20
 2006 01b4 002083E5 		str	r2, [r3, #0]
  79:../leds.c     **** 	leds_display( status );
 2007              		.loc 1 79 0
 2008 01b8 14309FE5 		ldr	r3, .L20
 2009 01bc 003093E5 		ldr	r3, [r3, #0]
 2010 01c0 0300A0E1 		mov	r0, r3
 2011 01c4 FEFFFFEB 		bl	leds_display
  80:../leds.c     **** }
 2012              		.loc 1 80 0
 2013 01c8 0CD04BE2 		sub	sp, fp, #12
 2014 01cc 00689DE8 		ldmfd	sp, {fp, sp, lr}
 2015 01d0 1EFF2FE1 		bx	lr
 2016              	.L21:
 2017              		.align	2
 2018              	.L20:
 2019 01d4 00000000 		.word	status
 2020              		.cfi_endproc
 2021              	.LFE6:
 2023              		.align	2
 2024              		.global	leds_switch
 2026              	leds_switch:
 2027              	.LFB7:
  81:../leds.c     **** 
  82:../leds.c     **** void leds_switch( void ){
 2028              		.loc 1 82 0
 2029              		.cfi_startproc
 2030              		@ Function supports interworking.
 2031              		@ args = 0, pretend = 0, frame = 0
 2032              		@ frame_needed = 1, uses_anonymous_args = 0
 2033 01d8 0DC0A0E1 		mov	ip, sp
 2034              	.LCFI14:
 2035              		.cfi_def_cfa_register 12
 2036 01dc 00D82DE9 		stmfd	sp!, {fp, ip, lr, pc}
 2037 01e0 04B04CE2 		sub	fp, ip, #4
 2038              		.cfi_offset 14, -8
 2039              		.cfi_offset 13, -12
 2040              		.cfi_offset 11, -16
 2041              	.LCFI15:
 2042              		.cfi_def_cfa 11, 4
  83:../leds.c     **** 	status ^= (LED1 | LED2);
 2043              		.loc 1 83 0
 2044 01e4 28309FE5 		ldr	r3, .L23
 2045 01e8 003093E5 		ldr	r3, [r3, #0]
 2046 01ec 032023E2 		eor	r2, r3, #3
 2047 01f0 1C309FE5 		ldr	r3, .L23
 2048 01f4 002083E5 		str	r2, [r3, #0]
  84:../leds.c     **** 	leds_display( status );
 2049              		.loc 1 84 0
 2050 01f8 14309FE5 		ldr	r3, .L23
 2051 01fc 003093E5 		ldr	r3, [r3, #0]
 2052 0200 0300A0E1 		mov	r0, r3
 2053 0204 FEFFFFEB 		bl	leds_display
  85:../leds.c     **** }
 2054              		.loc 1 85 0
 2055 0208 0CD04BE2 		sub	sp, fp, #12
 2056 020c 00689DE8 		ldmfd	sp, {fp, sp, lr}
 2057 0210 1EFF2FE1 		bx	lr
 2058              	.L24:
 2059              		.align	2
 2060              	.L23:
 2061 0214 00000000 		.word	status
 2062              		.cfi_endproc
 2063              	.LFE7:
 2065              		.align	2
 2066              		.global	leds_display
 2068              	leds_display:
 2069              	.LFB8:
  86:../leds.c     **** 
  87:../leds.c     **** void leds_display( unsigned int leds_status )
  88:../leds.c     **** {
 2070              		.loc 1 88 0
 2071              		.cfi_startproc
 2072              		@ Function supports interworking.
 2073              		@ args = 0, pretend = 0, frame = 8
 2074              		@ frame_needed = 1, uses_anonymous_args = 0
 2075 0218 0DC0A0E1 		mov	ip, sp
 2076              	.LCFI16:
 2077              		.cfi_def_cfa_register 12
 2078 021c 00D82DE9 		stmfd	sp!, {fp, ip, lr, pc}
 2079 0220 04B04CE2 		sub	fp, ip, #4
 2080              		.cfi_offset 14, -8
 2081              		.cfi_offset 13, -12
 2082              		.cfi_offset 11, -16
 2083              	.LCFI17:
 2084              		.cfi_def_cfa 11, 4
 2085 0224 08D04DE2 		sub	sp, sp, #8
 2086 0228 10000BE5 		str	r0, [fp, #-16]
  89:../leds.c     **** 	status = leds_status;
 2087              		.loc 1 89 0
 2088 022c 94309FE5 		ldr	r3, .L30
 2089 0230 10201BE5 		ldr	r2, [fp, #-16]
 2090 0234 002083E5 		str	r2, [r3, #0]
  90:../leds.c     **** 	
  91:../leds.c     **** 	// LED 1
  92:../leds.c     **** 	if( status & LED1 )
 2091              		.loc 1 92 0
 2092 0238 88309FE5 		ldr	r3, .L30
 2093 023c 003093E5 		ldr	r3, [r3, #0]
 2094 0240 013003E2 		and	r3, r3, #1
 2095 0244 FF3003E2 		and	r3, r3, #255
 2096 0248 000053E3 		cmp	r3, #0
 2097 024c 0500000A 		beq	.L26
  93:../leds.c     **** 		//COMPLETAR usando el interfaz del puerto B definido en gpio.h
  94:../leds.c     **** 		//hay que poner a nivel bajo el bit correspondiente al led 1
  95:../leds.c     **** 		rPDATB= rPDATB &~(0x01<<9);
 2098              		.loc 1 95 0
 2099 0250 74309FE5 		ldr	r3, .L30+4
 2100 0254 70209FE5 		ldr	r2, .L30+4
 2101 0258 002092E5 		ldr	r2, [r2, #0]
 2102 025c 022CC2E3 		bic	r2, r2, #512
 2103 0260 002083E5 		str	r2, [r3, #0]
 2104 0264 040000EA 		b	.L27
 2105              	.L26:
  96:../leds.c     **** 
  97:../leds.c     **** 	else
  98:../leds.c     **** 		//COMPLETAR usando el interfaz del puerto B definido en gpio.h
  99:../leds.c     **** 		//hay que poner a nivel alto el bit correspondiente al led 1
 100:../leds.c     **** 		rPDATB= rPDATB | (0x01<<9);
 2106              		.loc 1 100 0
 2107 0268 5C309FE5 		ldr	r3, .L30+4
 2108 026c 58209FE5 		ldr	r2, .L30+4
 2109 0270 002092E5 		ldr	r2, [r2, #0]
 2110 0274 022C82E3 		orr	r2, r2, #512
 2111 0278 002083E5 		str	r2, [r3, #0]
 2112              	.L27:
 101:../leds.c     **** 
 102:../leds.c     **** 	// LED 2
 103:../leds.c     **** 	if( status & LED2 )
 2113              		.loc 1 103 0
 2114 027c 44309FE5 		ldr	r3, .L30
 2115 0280 003093E5 		ldr	r3, [r3, #0]
 2116 0284 023003E2 		and	r3, r3, #2
 2117 0288 000053E3 		cmp	r3, #0
 2118 028c 0500000A 		beq	.L28
 104:../leds.c     **** 		//COMPLETAR usando el interfaz del puerto B definido en gpio.h
 105:../leds.c     **** 		//hay que poner a nivel bajo el bit correspondiente al led 2
 106:../leds.c     **** 		rPDATB= rPDATB &~(0X01<<10);
 2119              		.loc 1 106 0
 2120 0290 34309FE5 		ldr	r3, .L30+4
 2121 0294 30209FE5 		ldr	r2, .L30+4
 2122 0298 002092E5 		ldr	r2, [r2, #0]
 2123 029c 012BC2E3 		bic	r2, r2, #1024
 2124 02a0 002083E5 		str	r2, [r3, #0]
 2125 02a4 040000EA 		b	.L25
 2126              	.L28:
 107:../leds.c     **** 
 108:../leds.c     **** 	else
 109:../leds.c     **** 		//COMPLETAR usando el interfaz del puerto B definido en gpio.h
 110:../leds.c     **** 		//hay que poner a nivel alto el bit correspondiente al led 2
 111:../leds.c     **** 		rPDATB= rPDATB | (0x01<<10);
 2127              		.loc 1 111 0
 2128 02a8 1C309FE5 		ldr	r3, .L30+4
 2129 02ac 18209FE5 		ldr	r2, .L30+4
 2130 02b0 002092E5 		ldr	r2, [r2, #0]
 2131 02b4 012B82E3 		orr	r2, r2, #1024
 2132 02b8 002083E5 		str	r2, [r3, #0]
 2133              	.L25:
 112:../leds.c     **** }
 2134              		.loc 1 112 0
 2135 02bc 0CD04BE2 		sub	sp, fp, #12
 2136 02c0 00689DE8 		ldmfd	sp, {fp, sp, lr}
 2137 02c4 1EFF2FE1 		bx	lr
 2138              	.L31:
 2139              		.align	2
 2140              	.L30:
 2141 02c8 00000000 		.word	status
 2142 02cc 0C00D201 		.word	30539788
 2143              		.cfi_endproc
 2144              	.LFE8:
 2146              	.Letext0: